; Function Attrs: mustprogress uwtable
define internal void @_ZN2cv3hal12cpu_baseline12_GLOBAL__N_114cvtYUV422toRGBILi0ELi0ELi0ELi4EEEvPhmPKhmii(ptr noundef %0, i64 noundef %1, ptr noundef %2, i64 noundef %3, i32 noundef %4, i32 noundef %5) unnamed_addr #0 personality ptr @__gxx_personality_v0 {
  %7 = alloca %"struct.cv::hal::cpu_baseline::(anonymous namespace)::YUV422toRGB8Invoker.33", align 8
  %8 = alloca %"class.cv::Range", align 4
  %9 = alloca %"class.cv::Range", align 4
  store ptr getelementptr inbounds inrange(-16, 24) (i8, ptr @_ZTVN2cv3hal12cpu_baseline12_GLOBAL__N_119YUV422toRGB8InvokerILi0ELi0ELi0ELi4EEE, i64 16), ptr %7, align 8
  %10 = getelementptr inbounds i8, ptr %7, i64 8
  store ptr %0, ptr %10, align 8
  %11 = getelementptr inbounds i8, ptr %7, i64 16
  store i64 %1, ptr %11, align 8
  %12 = getelementptr inbounds i8, ptr %7, i64 24
  store ptr %2, ptr %12, align 8
  %13 = getelementptr inbounds i8, ptr %7, i64 32
  store i64 %3, ptr %13, align 8
  %14 = getelementptr inbounds i8, ptr %7, i64 40
  store i32 %4, ptr %14, align 8
  %15 = mul nsw i32 %5, %4
  %16 = icmp sgt i32 %15, 76799
  br i1 %16, label %17, label %21

17:                                               ; preds = %6
  store i32 0, ptr %8, align 4
  %18 = getelementptr inbounds i8, ptr %8, i64 4
  store i32 %5, ptr %18, align 4
  invoke void @_ZN2cv13parallel_for_ERKNS_5RangeERKNS_16ParallelLoopBodyEd(ptr noundef nonnull align 4 dereferenceable(8) %8, ptr noundef nonnull align 8 dereferenceable(8) %7, double noundef -1.000000e+00)
          to label %23 unwind label %19

19:                                               ; preds = %17
  %20 = landingpad { ptr, i32 }
          cleanup
  call void @_ZN2cv16ParallelLoopBodyD2Ev(ptr noundef nonnull align 8 dereferenceable(8) %7) #12
  resume { ptr, i32 } %20

21:                                               ; preds = %6
  store i32 0, ptr %9, align 4
  %22 = getelementptr inbounds i8, ptr %9, i64 4
  store i32 %5, ptr %22, align 4
  call void @_ZNK2cv3hal12cpu_baseline12_GLOBAL__N_119YUV422toRGB8InvokerILi0ELi0ELi0ELi4EEclERKNS_5RangeE(ptr noundef nonnull align 8 dereferenceable(44) %7, ptr noundef nonnull align 4 dereferenceable(8) %9)
  br label %23

23:                                               ; preds = %21, %17
  call void @_ZN2cv16ParallelLoopBodyD2Ev(ptr noundef nonnull align 8 dereferenceable(8) %7) #12
  ret void
}